0001   0000             ;
0002   0000             ; TEC-1 Music Module ROM
0003   0000             ; 
0004   1000                     .org  1000h
0005   1000 C5 E5 04 3F L1000   .db  0C5h,0E5h,04h,3Fh,0Ch,3Bh,06h,38h,04h,35h,04h,32h,06h,2Fh,0Ch,2Ch
0005   1004 0C 3B 06 38 
0005   1008 04 35 04 32 
0005   100C 06 2F 0C 2C 
0006   1010 04 2A 0E 27         .db  04h,2Ah,0Eh,27h,0Ah,25h,08h,23h,08h,21h,0Ah,1Fh,0Eh,1Dh,03h,1Ch
0006   1014 0A 25 08 23 
0006   1018 08 21 0A 1F 
0006   101C 0E 1D 03 1C 
0007   1020 0A 1A 02 19         .db  0Ah,1Ah,02h,19h,0Bh,17h,06h,16h,02h,15h,0Fh,13h,0Dh,12h,0Ch,11h
0007   1024 0B 17 06 16 
0007   1028 02 15 0F 13 
0007   102C 0D 12 0C 11 
0008   1030 0C 10 0D 0F         .db  0Ch,10h,0Dh,0Fh,0Fh,0Eh,01h,0Eh,05h,0Dh,09h,0Ch,0Eh,0Bh,03h,0Bh
0008   1034 0F 0E 01 0E 
0008   1038 05 0D 09 0C 
0008   103C 0E 0B 03 0B 
0009   1040 09 0A 0F 09         .db  09h,0Ah,0Fh,09h,06h,09h,0Eh,08h,06h,08h,0Fh,07h,07h,07h,01h,07h
0009   1044 06 09 0E 08 
0009   1048 06 08 0F 07 
0009   104C 07 07 01 07 
0010   1050 0A 06 04 06         .db  0Ah,06h,04h,06h,0Fh,05h,09h,05h,04h,05h,00h,05h,0Bh,04h,07h,04h
0010   1054 0F 05 09 05 
0010   1058 04 05 00 05 
0010   105C 0B 04 07 04 
0011   1060 03 04 0F 03         .db  03h,04h,0Fh,03h,0Ch,03h,08h,03h,05h,03h,02h,03h,0Fh,02h,0Dh,02h
0011   1064 0C 03 08 03 
0011   1068 05 03 02 03 
0011   106C 0F 02 0D 02 
0012   1070 0A 02 08 02         .db  0Ah,02h,08h,02h,06h,02h,04h,02h,02h,02h,00h,02h,0ffh
0012   1074 06 02 04 02 
0012   1078 02 02 00 02 
0012   107C FF 
0013   107D             
0014   1080                     .org 1080h
0015   1080 C5          L1080   push    bc
0016   1081 E5                  push    hl
0017   1082 47                  ld      b,a
0018   1083 26 10               ld      h,10h
0019   1085 E6 3F               and     3fh
0020   1087 CA 9A 10            jp      z,L109a
0021   108A 87                  add     a,a
0022   108B 6F                  ld      l,a
0023   108C 7E                  ld      a,(hl)
0024   108D C6 80               add     a,80h
0025   108F D3 07               out     (07h),a
0026   1091 23                  inc     hl
0027   1092 7E                  ld      a,(hl)
0028   1093 D3 07               out     (07h),a
0029   1095 3E 90               ld      a,90h
0030   1097 C3 9C 10            jp      L109c
0031   109A             
0032   109A 3E 9F       L109a   ld      a,9fh
0033   109C D3 07       L109c   out     (07h),a
0034   109E 78                  ld      a,b
0035   109F E1                  pop     hl
0036   10A0 C1                  pop     bc
0037   10A1 C9                  ret     
0038   10A2             
0039   10B0                     .org  10b0h
0040   10B0 C5          L10b0   push    bc
0041   10B1 E5                  push    hl
0042   10B2 47                  ld      b,a
0043   10B3 26 10               ld      h,10h
0044   10B5 E6 3F               and     3fh
0045   10B7 CA CA 10            jp      z,L10ca
0046   10BA 87                  add     a,a
0047   10BB 6F                  ld      l,a
0048   10BC 7E                  ld      a,(hl)
0049   10BD C6 A0               add     a,0a0h
0050   10BF D3 07               out     (07h),a
0051   10C1 23                  inc     hl
0052   10C2 7E                  ld      a,(hl)
0053   10C3 D3 07               out     (07h),a
0054   10C5 3E B0               ld      a,0b0h
0055   10C7 C3 CC 10            jp      L10cc
0056   10CA             
0057   10CA 3E BF       L10ca   ld      a,0bfh
0058   10CC D3 07       L10cc   out     (07h),a
0059   10CE 78                  ld      a,b
0060   10CF E1                  pop     hl
0061   10D0 C1                  pop     bc
0062   10D1 C9                  ret     
0063   10D2             
0064   10E0                     .org 10e0h
0065   10E0 C5          L10e0   push    bc
0066   10E1 E5                  push    hl
0067   10E2 47                  ld      b,a
0068   10E3 26 10               ld      h,10h
0069   10E5 E6 3F               and     3fh
0070   10E7 CA FA 10            jp      z,L10fa
0071   10EA 87                  add     a,a
0072   10EB 6F                  ld      l,a
0073   10EC 7E                  ld      a,(hl)
0074   10ED C6 C0               add     a,0c0h
0075   10EF D3 07               out     (07h),a
0076   10F1 23                  inc     hl
0077   10F2 7E                  ld      a,(hl)
0078   10F3 D3 07               out     (07h),a
0079   10F5 3E D0               ld      a,0d0h
0080   10F7 C3 FC 10            jp      L10fc
0081   10FA 3E DF       L10fa   ld      a,0dfh
0082   10FC D3 07       L10fc   out     (07h),a
0083   10FE 78                  ld      a,b
0084   10FF E1                  pop     hl
0085   1100 C1                  pop     bc
0086   1101 C9                  ret     
0087   1102             
0088   1110                     .org  1110h
0089   1110 F5          L1110   push    af
0090   1111 D5                  push    de
0091   1112 11 80 00            ld      de,0080h
0092   1115 1B          L1115   dec     de
0093   1116 7A                  ld      a,d
0094   1117 B3                  or      e
0095   1118 C2 15 11            jp      nz,L1115
0096   111B D1                  pop     de
0097   111C F1                  pop     af
0098   111D C9                  ret     
0099   111E                      
0100   1120                     .org    1120h
0101   1120 F5          L1120   push    af
0102   1121 D5                  push    de
0103   1122 11 00 01            ld      de,0100h
0104   1125 1B          L1125   dec     de
0105   1126 7A                  ld      a,d
0106   1127 B3                  or      e
0107   1128 C2 25 11            jp      nz,L1125
0108   112B D1                  pop     de
0109   112C F1                  pop     af
0110   112D C9                  ret     
0111   112E             
0112   1130                    .org   1130h
0113   1130 F5          L1130   push    af
0114   1131 D5                  push    de
0115   1132 11 00 02            ld      de,0200h
0116   1135 1B          L1135   dec     de
0117   1136 7A                  ld      a,d
0118   1137 B3                  or      e
0119   1138 C2 35 11            jp      nz,L1135
0120   113B D1                  pop     de
0121   113C F1                  pop     af
0122   113D C9                  ret     
0123   113E             
0124   1140                     .org   1140h
0125   1140 F5          L1140   push    af
0126   1141 D5                  push    de
0127   1142 11 00 04            ld      de,0400h
0128   1145 1B          L1145   dec     de
0129   1146 7A                  ld      a,d
0130   1147 B3                  or      e
0131   1148 C2 45 11            jp      nz,L1145
0132   114B D1                  pop     de
0133   114C F1                  pop     af
0134   114D C9                  ret     
0135   114E             
0136   1150                     .org  1150h
0137   1150 F5          L1150   push    af
0138   1151 D5                  push    de
0139   1152 11 00 08            ld      de,0800h
0140   1155 1B          L1155   dec     de
0141   1156 7A                  ld      a,d
0142   1157 B3                  or      e
0143   1158 C2 55 11            jp      nz,L1155
0144   115B D1                  pop     de
0145   115C F1                  pop     af
0146   115D C9                  ret
0147   115E                 
0148   1160                     .org   1160h
0149   1160 F5          L1160   push    af
0150   1161 D5                  push    de
0151   1162 11 00 10            ld      de,1000h
0152   1165 1B          L1165   dec     de
0153   1166 7A                  ld      a,d
0154   1167 B3                  or      e
0155   1168 C2 65 11            jp      nz,L1165
0156   116B D1                  pop     de
0157   116C F1                  pop     af
0158   116D C9                  ret     
0159   116E             
0160   1170                     .org   1170h
0161   1170 F5          L1170   push    af
0162   1171 D5                  push    de
0163   1172 11 00 20            ld      de,2000h
0164   1175 1B          L1175   dec     de
0165   1176 7A                  ld      a,d
0166   1177 B3                  or      e
0167   1178 C2 75 11            jp      nz,L1175
0168   117B D1                  pop     de
0169   117C F1                  pop     af
0170   117D C9                  ret     
0171   117E             
0172   1180                     .org  1180h
0173   1180 F5          L1180   push    af
0174   1181 D5                  push    de
0175   1182 11 00 40            ld      de,4000h
0176   1185 1B          L1185   dec     de
0177   1186 7A                  ld      a,d
0178   1187 B3                  or      e
0179   1188 C2 85 11            jp      nz,L1185
0180   118B D1                  pop     de
0181   118C F1                  pop     af
0182   118D C9                  ret     
0183   118E             
0184   1190                     .org   1190h
0185   1190 F5          L1190   push    af
0186   1191 D5                  push    de
0187   1192 11 00 80            ld      de,8000h
0188   1195 1B          L1195   dec     de
0189   1196 7A                  ld      a,d
0190   1197 B3                  or      e
0191   1198 C2 95 11            jp      nz,L1195
0192   119B D1                  pop     de
0193   119C F1                  pop     af
0194   119D C9                  ret     
0195   119E             
0196   11A0                     .org   11a0h
0197   11A0 F5          L11a0   push    af
0198   11A1 D5                  push    de
0199   11A2 11 00 00            ld      de,0000h
0200   11A5 1B          L11a5   dec     de
0201   11A6 7A                  ld      a,d
0202   11A7 B3                  or      e
0203   11A8 C2 A5 11            jp      nz,L11a5
0204   11AB D1                  pop     de
0205   11AC F1                  pop     af
0206   11AD C9                  ret     
0207   11AE             
0208   11B0                     .org   11b0h
0209   11B0 C5          L11b0  push    bc
0210   11B1 D5                 push    de
0211   11B2 47                 ld      b,a
0212   11B3 1E 00              ld      e,00h
0213   11B5 57                 ld      d,a
0214   11B6 1B          L11b6  dec     de
0215   11B7 7A                 ld      a,d
0216   11B8 B3                 or      e
0217   11B9 C2 B6 11           jp      nz,L11b6
0218   11BC 78                 ld      a,b
0219   11BD D1                 pop     de
0220   11BE C1                 pop     bc
0221   11BF C9                 ret
0222   11C0                   
0223   11C0                    .org    11c0h
0224   11C0 3E 9F       L11c0  ld      a,9fh
0225   11C2 D3 07              out     (07h),a
0226   11C4 3E BF              ld      a,0bfh
0227   11C6 D3 07              out     (07h),a
0228   11C8 3E DF              ld      a,0dfh
0229   11CA D3 07              out     (07h),a
0230   11CC 3E FF              ld      a,0ffh
0231   11CE D3 07              out     (07h),a
0232   11D0 CD 70 11           call    L1170
0233   11D3 21 00 12    L11d3  ld      hl,L1200
0234   11D6 7E          L11d6  ld      a,(hl)
0235   11D7 FE FF              cp      0ffh
0236   11D9 CA D3 11           jp      z,L11d3
0237   11DC CD 80 10           call    L1080
0238   11DF 23                 inc     hl
0239   11E0 7E                 ld      a,(hl)
0240   11E1 CD B0 10           call    L10b0
0241   11E4 23                 inc     hl
0242   11E5 7E                 ld      a,(hl)
0243   11E6 CD E0 10           call    L10e0
0244   11E9 23                 inc     hl
0245   11EA 7E                 ld      a,(hl)
0246   11EB CD B0 11           call    L11b0
0247   11EE 23                 inc     hl
0248   11EF C3 D6 11           jp      L11d6     
0249   11F2             
0250   1200                     .org   1200h
0251   1200 15 00 00 20 L1200   .db  15h,00h,00h,20h,13h,00h,00h,20h,18h,00h,00h,20h,1Ah,00h,00h,10h
0251   1204 13 00 00 20 
0251   1208 18 00 00 20 
0251   120C 1A 00 00 10 
0252   1210 1F 00 00 10         .db  1Fh,00h,00h,10h,1Ch,00h,00h,20h,1Ah,00h,00h,10h,1Fh,00h,00h,10h
0252   1214 1C 00 00 20 
0252   1218 1A 00 00 10 
0252   121C 1F 00 00 10 
0253   1220 1C 00 00 20         .db  1Ch,00h,00h,20h,18h,00h,00h,20h,1Ah,00h,00h,20h,15h,00h,00h,20h
0253   1224 18 00 00 20 
0253   1228 1A 00 00 20 
0253   122C 15 00 00 20 
0254   1230 13 00 00 20         .db  13h,00h,00h,20h,15h,10h,0Ch,20h,13h,0Eh,0Bh,20h,18h,10h,0Ch,20h
0254   1234 15 10 0C 20 
0254   1238 13 0E 0B 20 
0254   123C 18 10 0C 20 
0255   1240 1A 17 0E 10         .db  1Ah,17h,0Eh,10h,1Fh,17h,0Eh,10h,1Ch,17h,13h,20h,1Ah,17h,0Eh,10h
0255   1244 1F 17 0E 10 
0255   1248 1C 17 13 20 
0255   124C 1A 17 0E 10 
0256   1250 1F 17 0E 10         .db  1Fh,17h,0Eh,10h,1Ch,18h,13h,20h,18h,15h,10h,20h,1Ah,15h,12h,20h
0256   1254 1C 18 13 20 
0256   1258 18 15 10 20 
0256   125C 1A 15 12 20 
0257   1260 15 0E 09 20         .db  15h,0Eh,09h,20h,13h,0Eh,0Bh,20h,13h,00h,00h,20h,15h,00h,00h,20h
0257   1264 13 0E 0B 20 
0257   1268 13 00 00 20 
0257   126C 15 00 00 20 
0258   1270 10 00 00 20         .db  10h,00h,00h,20h,13h,00h,00h,10h,15h,00h,00h,10h,0Eh,00h,00h,20h
0258   1274 13 00 00 10 
0258   1278 15 00 00 10 
0258   127C 0E 00 00 20 
0259   1280 15 00 00 10         .db  15h,00h,00h,10h,17h,00h,00h,10h,13h,00h,00h,20h,1Fh,13h,07h,20h
0259   1284 17 00 00 10 
0259   1288 13 00 00 20 
0259   128C 1F 13 07 20 
0260   1290 1C 13 0C 20         .db  1Ch,13h,0Ch,20h,1Ah,13h,09h,10h,18h,13h,09h,10h,13h,00h,07h,20h
0260   1294 1A 13 09 10 
0260   1298 18 13 09 10 
0260   129C 13 00 07 20 
0261   12A0 13 00 00 20         .db  13h,00h,00h,20h,15h,00h,00h,20h,10h,00h,00h,20h,13h,00h,00h,10h
0261   12A4 15 00 00 20 
0261   12A8 10 00 00 20 
0261   12AC 13 00 00 10 
0262   12B0 15 00 00 10         .db  15h,00h,00h,10h,11h,00h,00h,20h,18h,00h,00h,10h,1Ah,00h,00h,10h
0262   12B4 11 00 00 20 
0262   12B8 18 00 00 10 
0262   12BC 1A 00 00 10 
0263   12C0 16 00 00 20         .db  16h,00h,00h,20h,22h,16h,0Ah,20h,1Fh,16h,0Fh,20h,1Dh,16h,0Ch,10h
0263   12C4 22 16 0A 20 
0263   12C8 1F 16 0F 20 
0263   12CC 1D 16 0C 10 
0264   12D0 1B 16 0C 10         .db  1Bh,16h,0Ch,10h,16h,00h,0Ah,20h,16h,11h,0Ah,20h,18h,11h,0Ch,20h
0264   12D4 16 00 0A 20 
0264   12D8 16 11 0A 20 
0264   12DC 18 11 0C 20 
0265   12E0 16 11 0A 20         .db  16h,11h,0Ah,20h,18h,11h,0Ch,10h,1Ah,11h,0Eh,10h,1Dh,00h,11h,10h
0265   12E4 18 11 0C 10 
0265   12E8 1A 11 0E 10 
0265   12EC 1D 00 11 10 
0266   12F0 18 11 0C 10         .db  18h,11h,0Ch,10h,16h,08h,0Ah,20h,1Bh,16h,13h,10h,1Dh,16h,11h,10h
0266   12F4 16 08 0A 20 
0266   12F8 1B 16 13 10 
0266   12FC 1D 16 11 10 
0267   1300 1F 1B 16 10         .db  1Fh,1Bh,16h,10h,22h,16h,0Fh,10h,20h,1Dh,18h,10h,1Fh,1Bh,16h,10h
0267   1304 22 16 0F 10 
0267   1308 20 1D 18 10 
0267   130C 1F 1B 16 10 
0268   1310 1D 16 0A 10         .db  1Dh,16h,0Ah,10h,20h,14h,0Ah,10h,1Fh,1Bh,0Ch,10h,1Bh,0Fh,0Ch,10h
0268   1314 20 14 0A 10 
0268   1318 1F 1B 0C 10 
0268   131C 1B 0F 0C 10 
0269   1320 1D 1A 16 20         .db  1Dh,1Ah,16h,20h,16h,11h,0Ah,20h,18h,11h,0Ch,20h,16h,11h,0Ah,20h
0269   1324 16 11 0A 20 
0269   1328 18 11 0C 20 
0269   132C 16 11 0A 20 
0270   1330 18 11 0C 10         .db  18h,11h,0Ch,10h,1Ah,11h,0Eh,10h,1Dh,11h,00h,10h,18h,11h,0Ch,10h
0270   1334 1A 11 0E 10 
0270   1338 1D 11 00 10 
0270   133C 18 11 0C 10 
0271   1340 1A 15 0E 20         .db  1Ah,15h,0Eh,20h,1Ch,15h,10h,20h,1Ah,15h,0Eh,20h,1Ch,15h,10h,10h
0271   1344 1C 15 10 20 
0271   1348 1A 15 0E 20 
0271   134C 1C 15 10 10 
0272   1350 1F 15 13 10         .db  1Fh,15h,13h,10h,21h,15h,00h,10h,1Ch,15h,10h,10h,1Ah,15h,0Eh,20h
0272   1354 21 15 00 10 
0272   1358 1C 15 10 10 
0272   135C 1A 15 0E 20 
0273   1360 1F 1A 17 10         .db  1Fh,1Ah,17h,10h,21h,1Eh,1Ah,10h,23h,1Fh,1Ah,10h,26h,1Ah,00h,10h
0273   1364 21 1E 1A 10 
0273   1368 23 1F 1A 10 
0273   136C 26 1A 00 10 
0274   1370 24 21 1C 10         .db  24h,21h,1Ch,10h,23h,1Fh,1Ah,10h,21h,1Eh,1Ah,10h,24h,18h,00h,10h
0274   1374 23 1F 1A 10 
0274   1378 21 1E 1A 10 
0274   137C 24 18 00 10 
0275   1380 23 1F 1C 10         .db  23h,1Fh,1Ch,10h,1Fh,13h,00h,10h,21h,1Eh,1Ah,20h,23h,1Ah,17h,10h
0275   1384 1F 13 00 10 
0275   1388 21 1E 1A 20 
0275   138C 23 1A 17 10 
0276   1390 1E 1A 17 10         .db  1Eh,1Ah,17h,10h,1Fh,1Ch,13h,20h,23h,1Ah,17h,20h,1Ch,18h,12h,20h
0276   1394 1F 1C 13 20 
0276   1398 23 1A 17 20 
0276   139C 1C 18 12 20 
0277   13A0 23 1A 17 20         .db  23h,1Ah,17h,20h,1Ch,18h,12h,20h,1Fh,17h,13h,10h,1Ah,17h,13h,10h
0277   13A4 1C 18 12 20 
0277   13A8 1F 17 13 10 
0277   13AC 1A 17 13 10 
0278   13B0 1C 18 13 20         .db  1Ch,18h,13h,20h,1Fh,17h,13h,20h,1Ch,18h,13h,20h,1Fh,17h,13h,10h
0278   13B4 1F 17 13 20 
0278   13B8 1C 18 13 20 
0278   13BC 1F 17 13 10 
0279   13C0 1A 17 13 10         .db  1Ah,17h,13h,10h,1Ch,18h,13h,20h,1Ah,15h,11h,10h,1Ah,15h,12h,10h
0279   13C4 1C 18 13 20 
0279   13C8 1A 15 11 10 
0279   13CC 1A 15 12 10 
0280   13D0 17 13 0E 20         .db  17h,13h,0Eh,20h,19h,13h,10h,20h,1Ah,15h,11h,10h,1Ah,15h,12h,10h
0280   13D4 19 13 10 20 
0280   13D8 1A 15 11 10 
0280   13DC 1A 15 12 10 
0281   13E0 17 13 0E 20         .db  17h,13h,0Eh,20h,19h,13h,10h,10h,1Ch,13h,10h,10h,1Ah,15h,12h,20h
0281   13E4 19 13 10 10 
0281   13E8 1C 13 10 10 
0281   13EC 1A 15 12 20 
0282   13F0 17 13 10 20         .db  17h,13h,10h,20h,1Ah,15h,12h,20h,1Fh,13h,00h,20h,1Dh,18h,15h,10h
0282   13F4 1A 15 12 20 
0282   13F8 1F 13 00 20 
0282   13FC 1D 18 15 10 
0283   1400 1C 10 00 10         .db  1Ch,10h,00h,10h,1Ah,17h,13h,10h,18h,13h,10h,10h,1Ah,13h,0Eh,20h
0283   1404 1A 17 13 10 
0283   1408 18 13 10 10 
0283   140C 1A 13 0E 20 
0284   1410 1C 13 10 20         .db  1Ch,13h,10h,20h,1Fh,1Ah,17h,20h,21h,1Dh,15h,10h,24h,18h,00h,10h
0284   1414 1F 1A 17 20 
0284   1418 21 1D 15 10 
0284   141C 24 18 00 10 
0285   1420 1F 13 00 20         .db  1Fh,13h,00h,20h,21h,15h,00h,20h,1Fh,13h,00h,20h,1Dh,18h,15h,10h
0285   1424 21 15 00 20 
0285   1428 1F 13 00 20 
0285   142C 1D 18 15 10 
0286   1430 1C 10 00 10         .db  1Ch,10h,00h,10h,1Ah,17h,13h,10h,18h,13h,10h,10h,1Ah,13h,0Eh,20h
0286   1434 1A 17 13 10 
0286   1438 18 13 10 10 
0286   143C 1A 13 0E 20 
0287   1440 1C 13 10 20         .db  1Ch,13h,10h,20h,1Fh,1Ah,17h,20h,21h,1Dh,15h,10h,24h,18h,00h,10h
0287   1444 1F 1A 17 20 
0287   1448 21 1D 15 10 
0287   144C 24 18 00 10 
0288   1450 1F 13 00 20         .db  1Fh,13h,00h,20h,21h,15h,00h,20h,1Fh,13h,00h,20h,15h,00h,00h,20h
0288   1454 21 15 00 20 
0288   1458 1F 13 00 20 
0288   145C 15 00 00 20 
0289   1460 13 00 00 20         .db  13h,00h,00h,20h,21h,1Eh,15h,10h,24h,18h,00h,10h,1Fh,13h,00h,20h
0289   1464 21 1E 15 10 
0289   1468 24 18 00 10 
0289   146C 1F 13 00 20 
0290   1470 21 15 00 20         .db  21h,15h,00h,20h,1Fh,13h,00h,20h,15h,11h,0Ch,20h,13h,0Eh,0Bh,20h
0290   1474 1F 13 00 20 
0290   1478 15 11 0C 20 
0290   147C 13 0E 0B 20 
0291   1480 18 13 0C 20         .db  18h,13h,0Ch,20h,1Ah,17h,0Eh,10h,1Fh,13h,00h,10h,1Ch,18h,13h,20h
0291   1484 1A 17 0E 10 
0291   1488 1F 13 00 10 
0291   148C 1C 18 13 20 
0292   1490 1A 17 0E 10         .db  1Ah,17h,0Eh,10h,1Fh,13h,00h,10h,1Ch,18h,13h,20h,18h,13h,10h,20h
0292   1494 1F 13 00 10 
0292   1498 1C 18 13 20 
0292   149C 18 13 10 20 
0293   14A0 1A 15 0E 20         .db  1Ah,15h,0Eh,20h,15h,12h,0Eh,20h,13h,0Eh,0Bh,20h,15h,10h,09h,20h
0293   14A4 15 12 0E 20 
0293   14A8 13 0E 0B 20 
0293   14AC 15 10 09 20 
0294   14B0 13 0E 0B 20         .db  13h,0Eh,0Bh,20h,18h,13h,0Ch,20h,1Ah,17h,13h,10h,1Fh,13h,00h,10h
0294   14B4 18 13 0C 20 
0294   14B8 1A 17 13 10 
0294   14BC 1F 13 00 10 
0295   14C0 1C 18 13 20         .db  1Ch,18h,13h,20h,18h,15h,10h,20h,1Dh,1Ah,15h,20h,1Ah,17h,13h,20h
0295   14C4 18 15 10 20 
0295   14C8 1D 1A 15 20 
0295   14CC 1A 17 13 20 
0296   14D0 18 13 10 40         .db  18h,13h,10h,40h,00h,00h,00h,40h,0ffh
0296   14D4 00 00 00 40 
0296   14D8 FF 
0297   14D9                     
0298   14E0                     .org   14e0h
0299   14E0 F5          L14e0   push    af
0300   14E1 3E 9F               ld      a,9fh
0301   14E3 D3 07               out     (07h),a
0302   14E5 3E BF               ld      a,0bfh
0303   14E7 D3 07               out     (07h),a
0304   14E9 3E DF               ld      a,0dfh
0305   14EB D3 07               out     (07h),a
0306   14ED 3E FF               ld      a,0ffh
0307   14EF D3 07               out     (07h),a
0308   14F1 F1                  pop     af
0309   14F2 C9                  ret     
0310   14F3             
0311   14F8                     .org   14f8h
0312   14F8 CD 00 15    L14f8   call    L1500
0313   14FB 18 FB               jr      L14f8
0314   14FD             
0315   1500                     .org   1500h
0316   1500 CD E0 14    L1500   call    L14e0
0317   1503 CD 70 11            call    L1170
0318   1506 2A 00 08    L1506   ld      hl,(0800h)
0319   1509 7E          L1509   ld      a,(hl)
0320   150A FE FF               cp      0ffh
0321   150C C8                  ret     z
0322   150D 00                  nop     
0323   150E CD 80 10            call    L1080
0324   1511 23                  inc     hl
0325   1512 7E                  ld      a,(hl)
0326   1513 CD B0 10            call    L10b0
0327   1516 23                  inc     hl
0328   1517 7E                  ld      a,(hl)
0329   1518 CD E0 10            call    L10e0
0330   151B 23                  inc     hl
0331   151C 7E                  ld      a,(hl)
0332   151D CD 30 15            call    L1530
0333   1520 23                  inc     hl
0334   1521 C3 09 15            jp      L1509
0335   1524             
0336   1528                     .org   1528h
0337   1528 CD 06 15    L1528   call    L1506
0338   152B 18 FB               jr      L1528
0339   152D             
0340   1530                     .org    1530h
0341   1530 E6 07       L1530   and     07h
0342   1532 23                  inc     hl
0343   1533 FE 07               cp      07h
0344   1535 CA 40 16            jp      z,L1640
0345   1538 FE 03               cp      03h
0346   153A CA D0 15            jp      z,L15d0
0347   153D FE 05               cp      05h
0348   153F CA F0 15            jp      z,L15f0
0349   1542 FE 06               cp      06h
0350   1544 CA 10 16            jp      z,L1610
0351   1547 FE 01               cp      01h
0352   1549 CA 70 15            jp      z,L1570
0353   154C FE 02               cp      02h
0354   154E CA 90 15            jp      z,L1590
0355   1551 FE 04               cp      04h
0356   1553 CA B0 15            jp      z,L15b0
0357   1556 C3 60 15            jp      L1560
0358   1559             
0359   1560                     .org    1560h
0360   1560 F5          L1560   push    af
0361   1561 C5                  push    bc
0362   1562 06 0F               ld      b,0fh
0363   1564 7E          L1564   ld      a,(hl)
0364   1565 CD B0 11            call    L11b0
0365   1568 10 FA               djnz    L1564
0366   156A C1                  pop     bc
0367   156B F1                  pop     af
0368   156C C9                  ret     
0369   156D             
0370   1570                     .org    1570h
0371   1570 F5          L1570   push    af
0372   1571 C5                  push    bc
0373   1572 3E 90               ld      a,90h
0374   1574 D3 07               out     (07h),a
0375   1576 06 0F               ld      b,0fh
0376   1578 F5          L1578   push    af
0377   1579 7E                  ld      a,(hl)
0378   157A CD B0 11            call    L11b0
0379   157D F1                  pop     af
0380   157E 3C                  inc     a
0381   157F D3 07               out     (07h),a
0382   1581 10 F5               djnz    L1578
0383   1583 C1                  pop     bc
0384   1584 F1                  pop     af
0385   1585 C9                  ret     
0386   1586             
0387   1590                     .org    1590h
0388   1590 F5          L1590   push    af
0389   1591 C5                  push    bc
0390   1592 3E B0               ld      a,0b0h
0391   1594 D3 07               out     (07h),a
0392   1596 06 0F               ld      b,0fh
0393   1598 F5          L1598   push    af
0394   1599 7E                  ld      a,(hl)
0395   159A CD B0 11            call    L11b0
0396   159D F1                  pop     af
0397   159E 3C                  inc     a
0398   159F D3 07               out     (07h),a
0399   15A1 10 F5               djnz    L1598
0400   15A3 C1                  pop     bc
0401   15A4 F1                  pop     af
0402   15A5 C9                  ret     
0403   15A6             
0404   15B0                     .org    15b0h
0405   15B0 F5          L15b0   push    af
0406   15B1 C5                  push    bc
0407   15B2 3E D0               ld      a,0d0h
0408   15B4 D3 07               out     (07h),a
0409   15B6 06 0F               ld      b,0fh
0410   15B8 F5          L15b8   push    af
0411   15B9 7E                  ld      a,(hl)
0412   15BA CD B0 11            call    L11b0
0413   15BD F1                  pop     af
0414   15BE 3C                  inc     a
0415   15BF D3 07               out     (07h),a
0416   15C1 10 F5               djnz    L15b8
0417   15C3 C1                  pop     bc
0418   15C4 F1                  pop     af
0419   15C5 C9                  ret     
0420   15C6             
0421   15D0                     .org    15d0h
0422   15D0 F5          L15d0   push    af
0423   15D1 C5                  push    bc
0424   15D2 3E 90               ld      a,90h
0425   15D4 D3 07               out     (07h),a
0426   15D6 C6 20               add     a,20h
0427   15D8 D3 07               out     (07h),a
0428   15DA 06 0F               ld      b,0fh
0429   15DC F5          L15dc   push    af
0430   15DD 7E                  ld      a,(hl)
0431   15DE CD B0 11            call    L11b0
0432   15E1 F1                  pop     af
0433   15E2 D6 20               sub     20h
0434   15E4 3C                  inc     a
0435   15E5 D3 07               out     (07h),a
0436   15E7 C6 20               add     a,20h
0437   15E9 D3 07               out     (07h),a
0438   15EB 10 EF               djnz    L15dc
0439   15ED C1                  pop     bc
0440   15EE F1                  pop     af
0441   15EF C9                  ret
0442   15F0                
0443   15F0                     .org    15f0h
0444   15F0 F5          L15f0   push    af
0445   15F1 C5                  push    bc
0446   15F2 3E 90               ld      a,90h
0447   15F4 D3 07               out     (07h),a
0448   15F6 C6 40               add     a,40h
0449   15F8 D3 07               out     (07h),a
0450   15FA 06 0F               ld      b,0fh
0451   15FC F5          L15fc   push    af
0452   15FD 7E                  ld      a,(hl)
0453   15FE CD B0 11            call    L11b0
0454   1601 F1                  pop     af
0455   1602 D6 40               sub     40h
0456   1604 3C                  inc     a
0457   1605 D3 07               out     (07h),a
0458   1607 C6 40               add     a,40h
0459   1609 D3 07               out     (07h),a
0460   160B 10 EF               djnz    L15fc
0461   160D C1                  pop     bc
0462   160E F1                  pop     af
0463   160F C9                  ret 
0464   1610                 
0465   1610                     .org    1610h
0466   1610 F5          L1610   push    af
0467   1611 C5                  push    bc
0468   1612 3E B0               ld      a,0b0h
0469   1614 D3 07               out     (07h),a
0470   1616 C6 20               add     a,20h
0471   1618 D3 07               out     (07h),a
0472   161A 06 0F               ld      b,0fh
0473   161C F5          L161c   push    af
0474   161D 7E                  ld      a,(hl)
0475   161E CD B0 11            call    L11b0
0476   1621 F1                  pop     af
0477   1622 D6 20               sub     20h
0478   1624 3C                  inc     a
0479   1625 D3 07               out     (07h),a
0480   1627 C6 20               add     a,20h
0481   1629 D3 07               out     (07h),a
0482   162B 10 EF               djnz    L161c
0483   162D C1                  pop     bc
0484   162E F1                  pop     af
0485   162F C9                  ret     
0486   1630             
0487   1640                     .org    1640h
0488   1640 F5          L1640   push    af
0489   1641 C5                  push    bc
0490   1642 3E 90               ld      a,90h
0491   1644 D3 07               out     (07h),a
0492   1646 C6 20               add     a,20h
0493   1648 D3 07               out     (07h),a
0494   164A C6 20               add     a,20h
0495   164C D3 07               out     (07h),a
0496   164E 06 0F               ld      b,0fh
0497   1650 F5          L1650   push    af
0498   1651 7E                  ld      a,(hl)
0499   1652 CD B0 11            call    L11b0
0500   1655 F1                  pop     af
0501   1656 D6 40               sub     40h
0502   1658 3C                  inc     a
0503   1659 D3 07               out     (07h),a
0504   165B C6 20               add     a,20h
0505   165D D3 07               out     (07h),a
0506   165F C6 20               add     a,20h
0507   1661 D3 07               out     (07h),a
0508   1663 10 EB               djnz    L1650
0509   1665 C1                  pop     bc
0510   1666 F1                  pop     af
0511   1667 C9                  ret     
0512   1668             
0513   1670                     .org    1670h
0514   1670 21 80 16    L1670   ld      hl,L1680
0515   1673 22 00 08            ld      (0800h),hl
0516   1676 C3 00 15            jp      L1500
0517   1679             
0518   1680                     .org  1680h
0519   1680 02 15 26 03 L1680   .db  02h,15h,26h,03h,02h,00h,00h,26h,00h,02h,0Eh,15h,26h,03h,02h,02h
0519   1684 02 00 00 26 
0519   1688 00 02 0E 15 
0519   168C 26 03 02 02 
0520   1690 15 26 03 02         .db  15h,26h,03h,02h,00h,00h,25h,00h,02h,0Eh,15h,26h,03h,02h,09h,10h
0520   1694 00 00 25 00 
0520   1698 02 0E 15 26 
0520   169C 03 02 09 10 
0521   16A0 21 03 02 00         .db  21h,03h,02h,00h,00h,23h,00h,02h,15h,10h,25h,03h,02h,07h,0Eh,26h
0521   16A4 00 23 00 02 
0521   16A8 15 10 25 03 
0521   16AC 02 07 0E 26 
0522   16B0 03 02 00 00         .db  03h,02h,00h,00h,1Fh,00h,02h,13h,0Eh,23h,03h,02h,09h,10h,21h,03h
0522   16B4 1F 00 02 13 
0522   16B8 0E 23 03 02 
0522   16BC 09 10 21 03 
0523   16C0 02 00 00 21         .db  02h,00h,00h,21h,00h,02h,15h,10h,21h,07h,02h,09h,10h,25h,03h,02h
0523   16C4 00 02 15 10 
0523   16C8 21 07 02 09 
0523   16CC 10 25 03 02 
0524   16D0 00 00 25 00         .db  00h,00h,25h,00h,02h,15h,10h,25h,03h,02h,09h,10h,25h,03h,02h,00h
0524   16D4 02 15 10 25 
0524   16D8 03 02 09 10 
0524   16DC 25 03 02 00 
0525   16E0 00 23 03 02         .db  00h,23h,03h,02h,15h,10h,25h,03h,02h,02h,02h,26h,00h,02h,02h,09h
0525   16E4 15 10 25 03 
0525   16E8 02 02 02 26 
0525   16EC 00 02 02 09 
0526   16F0 26 00 02 02         .db  26h,00h,02h,02h,0Eh,26h,00h,02h,02h,15h,26h,07h,06h,0ffh
0526   16F4 0E 26 00 02 
0526   16F8 02 15 26 07 
0526   16FC 06 FF 
0527   16FE                   
0528   1708                     .org   1708h
0529   1708 21 12 17            ld      hl,L1712
0530   170B 22 00 08            ld      (0800h),hl
0531   170E C3 00 15            jp      L1500
0532   1711             
0533   1711 FF                  .db  0ffh
0534   1712 1A 00 00 00 L1712   .db  1Ah,00h,00h,00h,04h,1Ah,15h,00h,00h,04h,1Ah,15h,12h,00h,04h,1Ah
0534   1716 04 1A 15 00 
0534   171A 00 04 1A 15 
0534   171E 12 00 04 1A 
0535   1722 15 12 07 08         .db  15h,12h,07h,08h,0ffh
0535   1726 FF 
0536   1727             
0537   1730                     .org    1730h
0538   1730 C5          L1730   push    bc
0539   1731 E5                  push    hl
0540   1732 47                  ld      b,a
0541   1733 26 10               ld      h,10h
0542   1735 E6 3F               and     3fh
0543   1737 CA 4A 17            jp      z,L174a
0544   173A 87                  add     a,a
0545   173B 6F                  ld      l,a
0546   173C 7E                  ld      a,(hl)
0547   173D C6 80               add     a,80h
0548   173F D3 05               out     (05h),a
0549   1741 23                  inc     hl
0550   1742 7E                  ld      a,(hl)
0551   1743 D3 05               out     (05h),a
0552   1745 3E 90               ld      a,90h
0553   1747 C3 4C 17            jp      L174c
0554   174A 3E 9F       L174a   ld      a,9fh
0555   174C D3 05       L174c   out     (05h),a
0556   174E 78                  ld      a,b
0557   174F E1                  pop     hl
0558   1750 C1                  pop     bc
0559   1751 C9                  ret     
0560   1752             
0561   1760                     .org    1760h
0562   1760 C5          L1760   push    bc
0563   1761 E5                  push    hl
0564   1762 47                  ld      b,a
0565   1763 26 10               ld      h,10h
0566   1765 E6 3F               and     3fh
0567   1767 CA 7A 17            jp      z,L177a
0568   176A 87                  add     a,a
0569   176B 6F                  ld      l,a
0570   176C 7E                  ld      a,(hl)
0571   176D C6 A0               add     a,0a0h
0572   176F D3 05               out     (05h),a
0573   1771 23                  inc     hl
0574   1772 7E                  ld      a,(hl)
0575   1773 D3 05               out     (05h),a
0576   1775 3E B0               ld      a,0b0h
0577   1777 C3 7C 17            jp      L177c
0578   177A 3E BF       L177a   ld      a,0bfh
0579   177C D3 05       L177c   out     (05h),a
0580   177E 78                  ld      a,b
0581   177F E1                  pop     hl
0582   1780 C1                  pop     bc
0583   1781 C9                  ret
0584   1782             
0585   1790                     .org    1790h
0586   1790 C5          L1790   push    bc
0587   1791 E5                  push    hl
0588   1792 47                  ld      b,a
0589   1793 26 10               ld      h,10h
0590   1795 E6 3F               and     3fh
0591   1797 CA AA 17            jp      z,L17aa
0592   179A 87                  add     a,a
0593   179B 6F                  ld      l,a
0594   179C 7E                  ld      a,(hl)
0595   179D C6 C0               add     a,0c0h
0596   179F D3 05               out     (05h),a
0597   17A1 23                  inc     hl
0598   17A2 7E                  ld      a,(hl)
0599   17A3 D3 05               out     (05h),a
0600   17A5 3E D0               ld      a,0d0h
0601   17A7 C3 AC 17            jp      L17ac
0602   17AA 3E DF       L17aa   ld      a,0dfh
0603   17AC D3 05       L17ac   out     (05h),a
0604   17AE 78                  ld      a,b
0605   17AF E1                  pop     hl
0606   17B0 C1                  pop     bc
0607   17B1 C9                  ret
0608   17B2             
0609   17C0                     .org    $17c0
0610   17C0 F5          L17c0   push    af
0611   17C1 3E 9F               ld      a,9fh
0612   17C3 D3 05               out     (05h),a
0613   17C5 3E BF               ld      a,0bfh
0614   17C7 D3 05               out     (05h),a
0615   17C9 3E DF               ld      a,0dfh
0616   17CB D3 05               out     (05h),a
0617   17CD 3E FF               ld      a,0ffh
0618   17CF D3 05               out     (05h),a
0619   17D1 F1                  pop     af
0620   17D2 C9                  ret
0621   17D3                     .end
tasm: Number of errors = 0
